target datalayout = "e-m:e-p270:32:32-p271:32:32-p272:64:64-i64:64-i128:128-f80:128-n8:16:32:64-S128"
target triple = "x86_64-pc-linux-gnu"

%struct.re_registers = type { i32, i32, ptr, ptr }
%struct.RMatch = type { %struct.RBasic, i64, i64 }
%struct.RBasic = type { i64, i64 }
%struct.rb_matchext_struct = type { %struct.re_registers, ptr, i32 }

; Function Attrs: inlinehint nounwind sspstrong willreturn memory(none) uwtable
define internal zeroext i1 @RB_IMMEDIATE_P(i64 noundef %0) #7 {
  %2 = alloca i64, align 8
  store i64 %0, ptr %2, align 8, !tbaa !11
  %3 = load i64, ptr %2, align 8, !tbaa !11
  %4 = and i64 %3, 7
  %5 = icmp ne i64 %4, 0
  ret i1 %5
}

; Function Attrs: inlinehint nounwind sspstrong willreturn memory(none) uwtable
define internal zeroext i1 @RB_FLONUM_P(i64 noundef %0) #7 {
  %2 = alloca i64, align 8
  store i64 %0, ptr %2, align 8, !tbaa !11
  %3 = load i64, ptr %2, align 8, !tbaa !11
  %4 = and i64 %3, 3
  %5 = icmp eq i64 %4, 2
  ret i1 %5
}

; Function Attrs: inlinehint nounwind sspstrong willreturn memory(read) uwtable
define internal zeroext i1 @RB_DYNAMIC_SYM_P(i64 noundef %0) #8 {
  %2 = alloca i1, align 1
  %3 = alloca i64, align 8
  store i64 %0, ptr %3, align 8, !tbaa !11
  %4 = load i64, ptr %3, align 8, !tbaa !11
  %5 = call zeroext i1 @RB_SPECIAL_CONST_P(i64 noundef %4) #31
  br i1 %5, label %6, label %7

6:                                                ; preds = %1
  store i1 false, ptr %2, align 1
  br label %11

7:                                                ; preds = %1
  %8 = load i64, ptr %3, align 8, !tbaa !11
  %9 = call i32 @RB_BUILTIN_TYPE(i64 noundef %8) #29
  %10 = icmp eq i32 %9, 20
  store i1 %10, ptr %2, align 1
  br label %11

11:                                               ; preds = %7, %6
  %12 = load i1, ptr %2, align 1
  ret i1 %12
}

; Function Attrs: inlinehint nounwind sspstrong willreturn memory(none) uwtable
define internal zeroext i1 @RB_STATIC_SYM_P(i64 noundef %0) #7 {
  %2 = alloca i64, align 8
  %3 = alloca i64, align 8
  store i64 %0, ptr %2, align 8, !tbaa !11
  call void @llvm.lifetime.start.p0(i64 8, ptr %3) #28
  store i64 255, ptr %3, align 8, !tbaa !11
  %4 = load i64, ptr %2, align 8, !tbaa !11
  %5 = and i64 %4, 255
  %6 = icmp eq i64 %5, 12
  call void @llvm.lifetime.end.p0(i64 8, ptr %3) #28
  ret i1 %6
}

; Function Attrs: inlinehint nounwind sspstrong willreturn memory(read) uwtable
define internal i32 @rb_type(i64 noundef %0) #8 {
  %2 = alloca i32, align 4
  %3 = alloca i64, align 8
  store i64 %0, ptr %3, align 8, !tbaa !11
  %4 = load i64, ptr %3, align 8, !tbaa !11
  %5 = call zeroext i1 @RB_SPECIAL_CONST_P(i64 noundef %4) #31
  br i1 %5, label %9, label %6

6:                                                ; preds = %1
  %7 = load i64, ptr %3, align 8, !tbaa !11
  %8 = call i32 @RB_BUILTIN_TYPE(i64 noundef %7) #29
  store i32 %8, ptr %2, align 4
  br label %36

9:                                                ; preds = %1
  %10 = load i64, ptr %3, align 8, !tbaa !11
  %11 = icmp eq i64 %10, 0
  br i1 %11, label %12, label %13

12:                                               ; preds = %9
  store i32 19, ptr %2, align 4
  br label %36

13:                                               ; preds = %9
  %14 = load i64, ptr %3, align 8, !tbaa !11
  %15 = icmp eq i64 %14, 4
  br i1 %15, label %16, label %17

16:                                               ; preds = %13
  store i32 17, ptr %2, align 4
  br label %36

17:                                               ; preds = %13
  %18 = load i64, ptr %3, align 8, !tbaa !11
  %19 = icmp eq i64 %18, 20
  br i1 %19, label %20, label %21

20:                                               ; preds = %17
  store i32 18, ptr %2, align 4
  br label %36

21:                                               ; preds = %17
  %22 = load i64, ptr %3, align 8, !tbaa !11
  %23 = icmp eq i64 %22, 36
  br i1 %23, label %24, label %25

24:                                               ; preds = %21
  store i32 22, ptr %2, align 4
  br label %36

25:                                               ; preds = %21
  %26 = load i64, ptr %3, align 8, !tbaa !11
  %27 = call zeroext i1 @RB_FIXNUM_P(i64 noundef %26) #31
  br i1 %27, label %28, label %29

28:                                               ; preds = %25
  store i32 21, ptr %2, align 4
  br label %36

29:                                               ; preds = %25
  %30 = load i64, ptr %3, align 8, !tbaa !11
  %31 = call zeroext i1 @RB_STATIC_SYM_P(i64 noundef %30) #31
  br i1 %31, label %32, label %33

32:                                               ; preds = %29
  store i32 20, ptr %2, align 4
  br label %36

33:                                               ; preds = %29
  %34 = load i64, ptr %3, align 8, !tbaa !11
  %35 = call zeroext i1 @RB_FLONUM_P(i64 noundef %34) #31
  call void @llvm.assume(i1 %35)
  store i32 4, ptr %2, align 4
  br label %36

36:                                               ; preds = %33, %32, %28, %24, %20, %16, %12, %6
  %37 = load i32, ptr %2, align 4
  ret i32 %37
}

; Function Attrs: inlinehint nounwind sspstrong willreturn memory(read) uwtable
define internal i32 @RB_BUILTIN_TYPE(i64 noundef %0) #8 {
  %2 = alloca i64, align 8
  %3 = alloca i64, align 8
  store i64 %0, ptr %2, align 8, !tbaa !11
  call void @llvm.lifetime.start.p0(i64 8, ptr %3) #28
  %4 = load i64, ptr %2, align 8, !tbaa !11
  %5 = inttoptr i64 %4 to ptr
  %6 = getelementptr inbounds nuw %struct.RBasic, ptr %5, i32 0, i32 0
  %7 = load i64, ptr %6, align 8, !tbaa !65
  %8 = and i64 %7, 31
  store i64 %8, ptr %3, align 8, !tbaa !11
  %9 = load i64, ptr %3, align 8, !tbaa !11
  %10 = trunc i64 %9 to i32
  call void @llvm.lifetime.end.p0(i64 8, ptr %3) #28
  ret i32 %10
}

; Function Attrs: inlinehint nounwind sspstrong willreturn memory(none) uwtable
define internal zeroext i1 @RB_SPECIAL_CONST_P(i64 noundef %0) #7 {
  %2 = alloca i64, align 8
  store i64 %0, ptr %2, align 8, !tbaa !11
  %3 = load i64, ptr %2, align 8, !tbaa !11
  %4 = icmp eq i64 %3, 0
  br i1 %4, label %8, label %5

5:                                                ; preds = %1
  %6 = load i64, ptr %2, align 8, !tbaa !11
  %7 = call zeroext i1 @RB_IMMEDIATE_P(i64 noundef %6) #31
  br label %8

8:                                                ; preds = %5, %1
  %9 = phi i1 [ true, %1 ], [ %7, %5 ]
  ret i1 %9
}

; Function Attrs: inlinehint nounwind sspstrong willreturn memory(read) uwtable
define internal zeroext i1 @RB_FLOAT_TYPE_P(i64 noundef %0) #8 {
  %2 = alloca i1, align 1
  %3 = alloca i64, align 8
  store i64 %0, ptr %3, align 8, !tbaa !11
  %4 = load i64, ptr %3, align 8, !tbaa !11
  %5 = call zeroext i1 @RB_FLONUM_P(i64 noundef %4) #31
  br i1 %5, label %6, label %7

6:                                                ; preds = %1
  store i1 true, ptr %2, align 1
  br label %15

7:                                                ; preds = %1
  %8 = load i64, ptr %3, align 8, !tbaa !11
  %9 = call zeroext i1 @RB_SPECIAL_CONST_P(i64 noundef %8) #31
  br i1 %9, label %10, label %11

10:                                               ; preds = %7
  store i1 false, ptr %2, align 1
  br label %15

11:                                               ; preds = %7
  %12 = load i64, ptr %3, align 8, !tbaa !11
  %13 = call i32 @RB_BUILTIN_TYPE(i64 noundef %12) #29
  %14 = icmp eq i32 %13, 4
  store i1 %14, ptr %2, align 1
  br label %15

15:                                               ; preds = %11, %10, %6
  %16 = load i1, ptr %2, align 1
  ret i1 %16
}

; Function Attrs: inlinehint nounwind sspstrong willreturn memory(read) uwtable
define internal zeroext i1 @RB_SYMBOL_P(i64 noundef %0) #8 {
  %2 = alloca i64, align 8
  store i64 %0, ptr %2, align 8, !tbaa !11
  %3 = load i64, ptr %2, align 8, !tbaa !11
  %4 = call zeroext i1 @RB_STATIC_SYM_P(i64 noundef %3) #31
  br i1 %4, label %8, label %5

5:                                                ; preds = %1
  %6 = load i64, ptr %2, align 8, !tbaa !11
  %7 = call zeroext i1 @RB_DYNAMIC_SYM_P(i64 noundef %6) #29
  br label %8

8:                                                ; preds = %5, %1
  %9 = phi i1 [ true, %1 ], [ %7, %5 ]
  ret i1 %9
}

; Function Attrs: inlinehint nounwind sspstrong willreturn memory(none) uwtable
define internal zeroext i1 @RB_FIXNUM_P(i64 noundef %0) #7 {
  %2 = alloca i64, align 8
  store i64 %0, ptr %2, align 8, !tbaa !11
  %3 = load i64, ptr %2, align 8, !tbaa !11
  %4 = and i64 %3, 1
  %5 = icmp ne i64 %4, 0
  ret i1 %5
}

; Function Attrs: inlinehint nounwind sspstrong willreturn memory(read) uwtable
define internal ptr @RMATCH_REGS(i64 noundef %0) #8 {
  %2 = alloca i64, align 8
  store i64 %0, ptr %2, align 8, !tbaa !11
  %3 = load i64, ptr %2, align 8, !tbaa !11
  %4 = inttoptr i64 %3 to ptr
  %5 = getelementptr i8, ptr %4, i64 32
  %6 = getelementptr inbounds nuw %struct.rb_matchext_struct, ptr %5, i32 0, i32 0
  ret ptr %6
}

; Function Attrs: inlinehint nounwind sspstrong willreturn memory(read) uwtable
define internal zeroext i1 @RB_TYPE_P(i64 noundef %0, i32 noundef %1) #8 {
  %3 = alloca i1, align 1
  %4 = alloca i64, align 8
  %5 = alloca i32, align 4
  store i64 %0, ptr %4, align 8, !tbaa !11
  store i32 %1, ptr %5, align 4, !tbaa !16
  %6 = load i32, ptr %5, align 4, !tbaa !16
  %7 = call i1 @llvm.is.constant.i32(i32 %6)
  br i1 %7, label %8, label %12

8:                                                ; preds = %2
  %9 = load i64, ptr %4, align 8, !tbaa !11
  %10 = load i32, ptr %5, align 4, !tbaa !16
  %11 = call zeroext i1 @rbimpl_RB_TYPE_P_fastpath(i64 noundef %9, i32 noundef %10) #29
  store i1 %11, ptr %3, align 1
  br label %17

12:                                               ; preds = %2
  %13 = load i32, ptr %5, align 4, !tbaa !16
  %14 = load i64, ptr %4, align 8, !tbaa !11
  %15 = call i32 @rb_type(i64 noundef %14) #29
  %16 = icmp eq i32 %13, %15
  store i1 %16, ptr %3, align 1
  br label %17

17:                                               ; preds = %12, %8
  %18 = load i1, ptr %3, align 1
  ret i1 %18
}

; Function Attrs: alwaysinline nounwind sspstrong willreturn memory(read) uwtable
define internal zeroext i1 @rbimpl_RB_TYPE_P_fastpath(i64 noundef %0, i32 noundef %1) #15 {
  %3 = alloca i1, align 1
  %4 = alloca i64, align 8
  %5 = alloca i32, align 4
  store i64 %0, ptr %4, align 8, !tbaa !11
  store i32 %1, ptr %5, align 4, !tbaa !16
  %6 = load i32, ptr %5, align 4, !tbaa !16
  %7 = icmp eq i32 %6, 18
  br i1 %7, label %8, label %11

8:                                                ; preds = %2
  %9 = load i64, ptr %4, align 8, !tbaa !11
  %10 = icmp eq i64 %9, 20
  store i1 %10, ptr %3, align 1
  br label %58

11:                                               ; preds = %2
  %12 = load i32, ptr %5, align 4, !tbaa !16
  %13 = icmp eq i32 %12, 19
  br i1 %13, label %14, label %17

14:                                               ; preds = %11
  %15 = load i64, ptr %4, align 8, !tbaa !11
  %16 = icmp eq i64 %15, 0
  store i1 %16, ptr %3, align 1
  br label %58

17:                                               ; preds = %11
  %18 = load i32, ptr %5, align 4, !tbaa !16
  %19 = icmp eq i32 %18, 17
  br i1 %19, label %20, label %23

20:                                               ; preds = %17
  %21 = load i64, ptr %4, align 8, !tbaa !11
  %22 = icmp eq i64 %21, 4
  store i1 %22, ptr %3, align 1
  br label %58

23:                                               ; preds = %17
  %24 = load i32, ptr %5, align 4, !tbaa !16
  %25 = icmp eq i32 %24, 22
  br i1 %25, label %26, label %29

26:                                               ; preds = %23
  %27 = load i64, ptr %4, align 8, !tbaa !11
  %28 = icmp eq i64 %27, 36
  store i1 %28, ptr %3, align 1
  br label %58

29:                                               ; preds = %23
  %30 = load i32, ptr %5, align 4, !tbaa !16
  %31 = icmp eq i32 %30, 21
  br i1 %31, label %32, label %35

32:                                               ; preds = %29
  %33 = load i64, ptr %4, align 8, !tbaa !11
  %34 = call zeroext i1 @RB_FIXNUM_P(i64 noundef %33) #31
  store i1 %34, ptr %3, align 1
  br label %58

35:                                               ; preds = %29
  %36 = load i32, ptr %5, align 4, !tbaa !16
  %37 = icmp eq i32 %36, 20
  br i1 %37, label %38, label %41

38:                                               ; preds = %35
  %39 = load i64, ptr %4, align 8, !tbaa !11
  %40 = call zeroext i1 @RB_SYMBOL_P(i64 noundef %39) #29
  store i1 %40, ptr %3, align 1
  br label %58

41:                                               ; preds = %35
  %42 = load i32, ptr %5, align 4, !tbaa !16
  %43 = icmp eq i32 %42, 4
  br i1 %43, label %44, label %47

44:                                               ; preds = %41
  %45 = load i64, ptr %4, align 8, !tbaa !11
  %46 = call zeroext i1 @RB_FLOAT_TYPE_P(i64 noundef %45) #29
  store i1 %46, ptr %3, align 1
  br label %58

47:                                               ; preds = %41
  %48 = load i64, ptr %4, align 8, !tbaa !11
  %49 = call zeroext i1 @RB_SPECIAL_CONST_P(i64 noundef %48) #31
  br i1 %49, label %50, label %51

50:                                               ; preds = %47
  store i1 false, ptr %3, align 1
  br label %58

51:                                               ; preds = %47
  %52 = load i32, ptr %5, align 4, !tbaa !16
  %53 = load i64, ptr %4, align 8, !tbaa !11
  %54 = call i32 @RB_BUILTIN_TYPE(i64 noundef %53) #29
  %55 = icmp eq i32 %52, %54
  br i1 %55, label %56, label %57

56:                                               ; preds = %51
  store i1 true, ptr %3, align 1
  br label %58

57:                                               ; preds = %51
  store i1 false, ptr %3, align 1
  br label %58

58:                                               ; preds = %57, %56, %50, %44, %38, %32, %26, %20, %14, %8
  %59 = load i1, ptr %3, align 1
  ret i1 %59
}

; Function Attrs: nounwind sspstrong uwtable
define internal i64 @match_equal(i64 noundef %0, i64 noundef %1) #0 {
  %3 = alloca i64, align 8
  %4 = alloca i64, align 8
  %5 = alloca i64, align 8
  %6 = alloca ptr, align 8
  %7 = alloca ptr, align 8
  %8 = alloca i32, align 4
  store i64 %0, ptr %4, align 8, !tbaa !11
  store i64 %1, ptr %5, align 8, !tbaa !11
  call void @llvm.lifetime.start.p0(i64 8, ptr %6) #28
  call void @llvm.lifetime.start.p0(i64 8, ptr %7) #28
  %9 = load i64, ptr %4, align 8, !tbaa !11
  %10 = load i64, ptr %5, align 8, !tbaa !11
  %11 = icmp eq i64 %9, %10
  br i1 %11, label %12, label %13

12:                                               ; preds = %2
  store i64 20, ptr %3, align 8
  store i32 1, ptr %8, align 4
  br label %98

13:                                               ; preds = %2
  br i1 true, label %14, label %17

14:                                               ; preds = %13
  %15 = load i64, ptr %5, align 8, !tbaa !11
  %16 = call zeroext i1 @rbimpl_RB_TYPE_P_fastpath(i64 noundef %15, i32 noundef 13) #29
  br i1 %16, label %21, label %20

17:                                               ; preds = %13
  %18 = load i64, ptr %5, align 8, !tbaa !11
  %19 = call zeroext i1 @RB_TYPE_P(i64 noundef %18, i32 noundef 13) #29
  br i1 %19, label %21, label %20

20:                                               ; preds = %17, %14
  store i64 0, ptr %3, align 8
  store i32 1, ptr %8, align 4
  br label %98

21:                                               ; preds = %17, %14
  %22 = load i64, ptr %4, align 8, !tbaa !11
  %23 = inttoptr i64 %22 to ptr
  %24 = getelementptr inbounds nuw %struct.RMatch, ptr %23, i32 0, i32 2
  %25 = load i64, ptr %24, align 8, !tbaa !37
  %26 = icmp ne i64 %25, 0
  br i1 %26, label %27, label %33

27:                                               ; preds = %21
  %28 = load i64, ptr %5, align 8, !tbaa !11
  %29 = inttoptr i64 %28 to ptr
  %30 = getelementptr inbounds nuw %struct.RMatch, ptr %29, i32 0, i32 2
  %31 = load i64, ptr %30, align 8, !tbaa !37
  %32 = icmp ne i64 %31, 0
  br i1 %32, label %34, label %33

33:                                               ; preds = %27, %21
  store i64 0, ptr %3, align 8
  store i32 1, ptr %8, align 4
  br label %98

34:                                               ; preds = %27
  %35 = load i64, ptr %4, align 8, !tbaa !11
  %36 = inttoptr i64 %35 to ptr
  %37 = getelementptr inbounds nuw %struct.RMatch, ptr %36, i32 0, i32 1
  %38 = load i64, ptr %37, align 8, !tbaa !43
  %39 = load i64, ptr %5, align 8, !tbaa !11
  %40 = inttoptr i64 %39 to ptr
  %41 = getelementptr inbounds nuw %struct.RMatch, ptr %40, i32 0, i32 1
  %42 = load i64, ptr %41, align 8, !tbaa !43
  %43 = call i64 @rb_str_equal(i64 noundef %38, i64 noundef %42)
  %44 = icmp ne i64 %43, 0
  br i1 %44, label %46, label %45

45:                                               ; preds = %34
  store i64 0, ptr %3, align 8
  store i32 1, ptr %8, align 4
  br label %98

46:                                               ; preds = %34
  %47 = load i64, ptr %4, align 8, !tbaa !11
  %48 = call i64 @match_regexp(i64 noundef %47)
  %49 = load i64, ptr %5, align 8, !tbaa !11
  %50 = call i64 @match_regexp(i64 noundef %49)
  %51 = call i64 @rb_reg_equal(i64 noundef %48, i64 noundef %50)
  %52 = icmp ne i64 %51, 0
  br i1 %52, label %54, label %53

53:                                               ; preds = %46
  store i64 0, ptr %3, align 8
  store i32 1, ptr %8, align 4
  br label %98

54:                                               ; preds = %46
  %55 = load i64, ptr %4, align 8, !tbaa !11
  %56 = call ptr @RMATCH_REGS(i64 noundef %55) #29
  store ptr %56, ptr %6, align 8, !tbaa !32
  %57 = load i64, ptr %5, align 8, !tbaa !11
  %58 = call ptr @RMATCH_REGS(i64 noundef %57) #29
  store ptr %58, ptr %7, align 8, !tbaa !32
  %59 = load ptr, ptr %6, align 8, !tbaa !32
  %60 = getelementptr inbounds nuw %struct.re_registers, ptr %59, i32 0, i32 1
  %61 = load i32, ptr %60, align 4, !tbaa !40
  %62 = load ptr, ptr %7, align 8, !tbaa !32
  %63 = getelementptr inbounds nuw %struct.re_registers, ptr %62, i32 0, i32 1
  %64 = load i32, ptr %63, align 4, !tbaa !40
  %65 = icmp ne i32 %61, %64
  br i1 %65, label %66, label %67

66:                                               ; preds = %54
  store i64 0, ptr %3, align 8
  store i32 1, ptr %8, align 4
  br label %98

67:                                               ; preds = %54
  %68 = load ptr, ptr %6, align 8, !tbaa !32
  %69 = getelementptr inbounds nuw %struct.re_registers, ptr %68, i32 0, i32 2
  %70 = load ptr, ptr %69, align 8, !tbaa !80
  %71 = load ptr, ptr %7, align 8, !tbaa !32
  %72 = getelementptr inbounds nuw %struct.re_registers, ptr %71, i32 0, i32 2
  %73 = load ptr, ptr %72, align 8, !tbaa !80
  %74 = load ptr, ptr %6, align 8, !tbaa !32
  %75 = getelementptr inbounds nuw %struct.re_registers, ptr %74, i32 0, i32 1
  %76 = load i32, ptr %75, align 4, !tbaa !40
  %77 = sext i32 %76 to i64
  %78 = mul i64 %77, 8
  %79 = call i32 @memcmp(ptr noundef %70, ptr noundef %73, i64 noundef %78) #29
  %80 = icmp ne i32 %79, 0
  br i1 %80, label %81, label %82

81:                                               ; preds = %67
  store i64 0, ptr %3, align 8
  store i32 1, ptr %8, align 4
  br label %98

82:                                               ; preds = %67
  %83 = load ptr, ptr %6, align 8, !tbaa !32
  %84 = getelementptr inbounds nuw %struct.re_registers, ptr %83, i32 0, i32 3
  %85 = load ptr, ptr %84, align 8, !tbaa !81
  %86 = load ptr, ptr %7, align 8, !tbaa !32
  %87 = getelementptr inbounds nuw %struct.re_registers, ptr %86, i32 0, i32 3
  %88 = load ptr, ptr %87, align 8, !tbaa !81
  %89 = load ptr, ptr %6, align 8, !tbaa !32
  %90 = getelementptr inbounds nuw %struct.re_registers, ptr %89, i32 0, i32 1
  %91 = load i32, ptr %90, align 4, !tbaa !40
  %92 = sext i32 %91 to i64
  %93 = mul i64 %92, 8
  %94 = call i32 @memcmp(ptr noundef %85, ptr noundef %88, i64 noundef %93) #29
  %95 = icmp ne i32 %94, 0
  br i1 %95, label %96, label %97

96:                                               ; preds = %82
  store i64 0, ptr %3, align 8
  store i32 1, ptr %8, align 4
  br label %98

97:                                               ; preds = %82
  store i64 20, ptr %3, align 8
  store i32 1, ptr %8, align 4
  br label %98

98:                                               ; preds = %97, %96, %81, %66, %53, %45, %33, %20, %12
  call void @llvm.lifetime.end.p0(i64 8, ptr %7) #28
  call void @llvm.lifetime.end.p0(i64 8, ptr %6) #28
  %99 = load i64, ptr %3, align 8
  ret i64 %99
}