; Function Attrs: nounwind sspstrong uwtable
define internal range(i64 0, 21) i64 @match_equal(i64 noundef %0, i64 noundef %1) #2 {
  %3 = icmp eq i64 %0, %1
  br i1 %3, label %rbimpl_RB_TYPE_P_fastpath.exit.thread, label %4

4:                                                ; preds = %2
  %5 = icmp eq i64 %1, 0
  %6 = and i64 %1, 7
  %7 = icmp ne i64 %6, 0
  %8 = or i1 %5, %7
  br i1 %8, label %rbimpl_RB_TYPE_P_fastpath.exit.thread, label %rbimpl_RB_TYPE_P_fastpath.exit

rbimpl_RB_TYPE_P_fastpath.exit:                   ; preds = %4
  %9 = inttoptr i64 %1 to ptr
  %10 = load i64, ptr %9, align 8, !tbaa !34
  %11 = and i64 %10, 31
  %12 = icmp eq i64 %11, 13
  br i1 %12, label %13, label %rbimpl_RB_TYPE_P_fastpath.exit.thread

13:                                               ; preds = %rbimpl_RB_TYPE_P_fastpath.exit
  %14 = inttoptr i64 %0 to ptr
  %15 = getelementptr inbounds nuw i8, ptr %14, i64 24
  %16 = load i64, ptr %15, align 8, !tbaa !31
  %.not = icmp eq i64 %16, 0
  br i1 %.not, label %rbimpl_RB_TYPE_P_fastpath.exit.thread, label %17

17:                                               ; preds = %13
  %18 = getelementptr inbounds nuw i8, ptr %9, i64 24
  %19 = load i64, ptr %18, align 8, !tbaa !31
  %.not22 = icmp eq i64 %19, 0
  br i1 %.not22, label %rbimpl_RB_TYPE_P_fastpath.exit.thread, label %20

20:                                               ; preds = %17
  %21 = getelementptr inbounds nuw i8, ptr %14, i64 16
  %22 = load i64, ptr %21, align 8, !tbaa !94
  %23 = getelementptr inbounds nuw i8, ptr %9, i64 16
  %24 = load i64, ptr %23, align 8, !tbaa !94
  %25 = tail call i64 @rb_str_equal(i64 noundef %22, i64 noundef %24) #29
  %.not23 = icmp eq i64 %25, 0
  br i1 %.not23, label %rbimpl_RB_TYPE_P_fastpath.exit.thread, label %26

26:                                               ; preds = %20
  %27 = tail call i64 @match_regexp(i64 noundef %0)
  %28 = tail call i64 @match_regexp(i64 noundef %1)
  %29 = tail call i64 @rb_reg_equal(i64 noundef %27, i64 noundef %28)
  %.not24 = icmp eq i64 %29, 0
  br i1 %.not24, label %rbimpl_RB_TYPE_P_fastpath.exit.thread, label %30

30:                                               ; preds = %26
  %31 = getelementptr i8, ptr %14, i64 36
  %32 = load i32, ptr %31, align 4, !tbaa !40
  %33 = getelementptr i8, ptr %9, i64 36
  %34 = load i32, ptr %33, align 4, !tbaa !40
  %.not25 = icmp eq i32 %32, %34
  br i1 %.not25, label %35, label %rbimpl_RB_TYPE_P_fastpath.exit.thread

35:                                               ; preds = %30
  %36 = getelementptr i8, ptr %14, i64 40
  %37 = load ptr, ptr %36, align 8, !tbaa !92
  %38 = getelementptr i8, ptr %9, i64 40
  %39 = load ptr, ptr %38, align 8, !tbaa !92
  %40 = sext i32 %32 to i64
  %41 = shl nsw i64 %40, 3
  %bcmp = tail call i32 @bcmp(ptr %37, ptr %39, i64 %41)
  %.not26 = icmp eq i32 %bcmp, 0
  br i1 %.not26, label %42, label %rbimpl_RB_TYPE_P_fastpath.exit.thread

42:                                               ; preds = %35
  %43 = getelementptr i8, ptr %14, i64 48
  %44 = load ptr, ptr %43, align 8, !tbaa !93
  %45 = getelementptr i8, ptr %9, i64 48
  %46 = load ptr, ptr %45, align 8, !tbaa !93
  %bcmp27 = tail call i32 @bcmp(ptr %44, ptr %46, i64 %41)
  %.not28 = icmp eq i32 %bcmp27, 0
  %. = select i1 %.not28, i64 20, i64 0
  br label %rbimpl_RB_TYPE_P_fastpath.exit.thread

rbimpl_RB_TYPE_P_fastpath.exit.thread:            ; preds = %4, %42, %35, %30, %26, %20, %13, %17, %rbimpl_RB_TYPE_P_fastpath.exit, %2
  %.0 = phi i64 [ 20, %2 ], [ 0, %rbimpl_RB_TYPE_P_fastpath.exit ], [ 0, %17 ], [ 0, %13 ], [ 0, %20 ], [ 0, %26 ], [ 0, %30 ], [ 0, %35 ], [ %., %42 ], [ 0, %4 ]
  ret i64 %.0
}